target datalayout = "e-m:e-p270:32:32-p271:32:32-p272:64:64-i64:64-i128:128-f80:128-n8:16:32:64-S128"
target triple = "x86_64-pc-linux-gnu"

%struct.jv = type { i8, i8, i16, i32, %union.anon }
%union.anon = type { ptr }

@.str.155 = private unnamed_addr constant [11 x i8] c"%s (%s) %s\00", align 1
@.str.157 = private unnamed_addr constant [27 x i8] c"only strings can be parsed\00", align 1

; Function Attrs: nounwind uwtable
define internal { i64, ptr } @type_error(i64 %0, ptr %1, ptr noundef %2) #0 {
  %4 = alloca %struct.jv, align 8
  %5 = alloca %struct.jv, align 8
  %6 = alloca ptr, align 8
  %7 = alloca [15 x i8], align 1
  %8 = alloca ptr, align 8
  %9 = alloca %struct.jv, align 8
  %10 = getelementptr inbounds nuw { i64, ptr }, ptr %5, i32 0, i32 0
  store i64 %0, ptr %10, align 8
  %11 = getelementptr inbounds nuw { i64, ptr }, ptr %5, i32 0, i32 1
  store ptr %1, ptr %11, align 8
  store ptr %2, ptr %6, align 8, !tbaa !12
  call void @llvm.lifetime.start.p0(i64 15, ptr %7) #10
  call void @llvm.lifetime.start.p0(i64 8, ptr %8) #10
  %12 = getelementptr inbounds nuw { i64, ptr }, ptr %5, i32 0, i32 0
  %13 = load i64, ptr %12, align 8
  %14 = getelementptr inbounds nuw { i64, ptr }, ptr %5, i32 0, i32 1
  %15 = load ptr, ptr %14, align 8
  %16 = call i32 @jv_get_kind(i64 %13, ptr %15)
  %17 = call ptr @jv_kind_name(i32 noundef %16)
  store ptr %17, ptr %8, align 8, !tbaa !12
  %18 = load ptr, ptr %8, align 8, !tbaa !12
  %19 = getelementptr inbounds [15 x i8], ptr %7, i64 0, i64 0
  %20 = getelementptr inbounds nuw { i64, ptr }, ptr %5, i32 0, i32 0
  %21 = load i64, ptr %20, align 8
  %22 = getelementptr inbounds nuw { i64, ptr }, ptr %5, i32 0, i32 1
  %23 = load ptr, ptr %22, align 8
  %24 = call ptr @jv_dump_string_trunc(i64 %21, ptr %23, ptr noundef %19, i64 noundef 15)
  %25 = load ptr, ptr %6, align 8, !tbaa !12
  %26 = call { i64, ptr } (ptr, ...) @jv_string_fmt(ptr noundef @.str.155, ptr noundef %18, ptr noundef %24, ptr noundef %25)
  %27 = getelementptr inbounds nuw { i64, ptr }, ptr %9, i32 0, i32 0
  %28 = extractvalue { i64, ptr } %26, 0
  store i64 %28, ptr %27, align 8
  %29 = getelementptr inbounds nuw { i64, ptr }, ptr %9, i32 0, i32 1
  %30 = extractvalue { i64, ptr } %26, 1
  store ptr %30, ptr %29, align 8
  %31 = getelementptr inbounds nuw { i64, ptr }, ptr %9, i32 0, i32 0
  %32 = load i64, ptr %31, align 8
  %33 = getelementptr inbounds nuw { i64, ptr }, ptr %9, i32 0, i32 1
  %34 = load ptr, ptr %33, align 8
  %35 = call { i64, ptr } @jv_invalid_with_msg(i64 %32, ptr %34)
  %36 = getelementptr inbounds nuw { i64, ptr }, ptr %4, i32 0, i32 0
  %37 = extractvalue { i64, ptr } %35, 0
  store i64 %37, ptr %36, align 8
  %38 = getelementptr inbounds nuw { i64, ptr }, ptr %4, i32 0, i32 1
  %39 = extractvalue { i64, ptr } %35, 1
  store ptr %39, ptr %38, align 8
  call void @llvm.lifetime.end.p0(i64 8, ptr %8) #10
  call void @llvm.lifetime.end.p0(i64 15, ptr %7) #10
  %40 = load { i64, ptr }, ptr %4, align 8
  ret { i64, ptr } %40
}

; Function Attrs: nounwind uwtable
define internal { i64, ptr } @f_json_parse(ptr noundef %0, i64 %1, ptr %2) #0 {
  %4 = alloca %struct.jv, align 8
  %5 = alloca %struct.jv, align 8
  %6 = alloca ptr, align 8
  %7 = alloca %struct.jv, align 8
  %8 = getelementptr inbounds nuw { i64, ptr }, ptr %5, i32 0, i32 0
  store i64 %1, ptr %8, align 8
  %9 = getelementptr inbounds nuw { i64, ptr }, ptr %5, i32 0, i32 1
  store ptr %2, ptr %9, align 8
  store ptr %0, ptr %6, align 8, !tbaa !25
  %10 = getelementptr inbounds nuw { i64, ptr }, ptr %5, i32 0, i32 0
  %11 = load i64, ptr %10, align 8
  %12 = getelementptr inbounds nuw { i64, ptr }, ptr %5, i32 0, i32 1
  %13 = load ptr, ptr %12, align 8
  %14 = call i32 @jv_get_kind(i64 %11, ptr %13)
  %15 = icmp ne i32 %14, 5
  br i1 %15, label %16, label %26

16:                                               ; preds = %3
  %17 = getelementptr inbounds nuw { i64, ptr }, ptr %5, i32 0, i32 0
  %18 = load i64, ptr %17, align 8
  %19 = getelementptr inbounds nuw { i64, ptr }, ptr %5, i32 0, i32 1
  %20 = load ptr, ptr %19, align 8
  %21 = call { i64, ptr } @type_error(i64 %18, ptr %20, ptr noundef @.str.157)
  %22 = getelementptr inbounds nuw { i64, ptr }, ptr %4, i32 0, i32 0
  %23 = extractvalue { i64, ptr } %21, 0
  store i64 %23, ptr %22, align 8
  %24 = getelementptr inbounds nuw { i64, ptr }, ptr %4, i32 0, i32 1
  %25 = extractvalue { i64, ptr } %21, 1
  store ptr %25, ptr %24, align 8
  br label %55

26:                                               ; preds = %3
  %27 = getelementptr inbounds nuw { i64, ptr }, ptr %5, i32 0, i32 0
  %28 = load i64, ptr %27, align 8
  %29 = getelementptr inbounds nuw { i64, ptr }, ptr %5, i32 0, i32 1
  %30 = load ptr, ptr %29, align 8
  %31 = call ptr @jv_string_value(i64 %28, ptr %30)
  %32 = getelementptr inbounds nuw { i64, ptr }, ptr %5, i32 0, i32 0
  %33 = load i64, ptr %32, align 8
  %34 = getelementptr inbounds nuw { i64, ptr }, ptr %5, i32 0, i32 1
  %35 = load ptr, ptr %34, align 8
  %36 = call { i64, ptr } @jv_copy(i64 %33, ptr %35)
  %37 = getelementptr inbounds nuw { i64, ptr }, ptr %7, i32 0, i32 0
  %38 = extractvalue { i64, ptr } %36, 0
  store i64 %38, ptr %37, align 8
  %39 = getelementptr inbounds nuw { i64, ptr }, ptr %7, i32 0, i32 1
  %40 = extractvalue { i64, ptr } %36, 1
  store ptr %40, ptr %39, align 8
  %41 = getelementptr inbounds nuw { i64, ptr }, ptr %7, i32 0, i32 0
  %42 = load i64, ptr %41, align 8
  %43 = getelementptr inbounds nuw { i64, ptr }, ptr %7, i32 0, i32 1
  %44 = load ptr, ptr %43, align 8
  %45 = call i32 @jv_string_length_bytes(i64 %42, ptr %44)
  %46 = call { i64, ptr } @jv_parse_sized(ptr noundef %31, i32 noundef %45)
  %47 = getelementptr inbounds nuw { i64, ptr }, ptr %4, i32 0, i32 0
  %48 = extractvalue { i64, ptr } %46, 0
  store i64 %48, ptr %47, align 8
  %49 = getelementptr inbounds nuw { i64, ptr }, ptr %4, i32 0, i32 1
  %50 = extractvalue { i64, ptr } %46, 1
  store ptr %50, ptr %49, align 8
  %51 = getelementptr inbounds nuw { i64, ptr }, ptr %5, i32 0, i32 0
  %52 = load i64, ptr %51, align 8
  %53 = getelementptr inbounds nuw { i64, ptr }, ptr %5, i32 0, i32 1
  %54 = load ptr, ptr %53, align 8
  call void @jv_free(i64 %52, ptr %54)
  br label %55

55:                                               ; preds = %26, %16
  %56 = load { i64, ptr }, ptr %4, align 8
  ret { i64, ptr } %56
}